target datalayout = "e-m:e-p270:32:32-p271:32:32-p272:64:64-i64:64-i128:128-f80:128-n8:16:32:64-S128"
target triple = "x86_64-pc-linux-gnu"

%struct.H5O_t = type { %struct.H5C_cache_entry_t, i64, i64, i8, i64, i8, i32, i8, i8, i64, i64, i64, i64, i32, i32, i64, i64, ptr, i64, i64, i64, i64, ptr, i8, ptr }
%struct.H5C_cache_entry_t = type { ptr, i64, i64, ptr, i8, ptr, i8, i8, i8, i8, i32, i8, i8, i8, i8, i8, i32, ptr, i32, i32, i32, i32, i32, i8, i8, ptr, ptr, ptr, ptr, ptr, ptr, i8, i32, i8, i64, ptr, i64, i64, i32, i8, i32, i32, i8, ptr, ptr, ptr }

@.str.4 = private unnamed_addr constant [100 x i8] c"generated/home/dtcxzyw/WorkSpace/Projects/compilers/llvm-opt-benchmark/bench/hdf5/hdf5/src/H5Oint.c\00", align 1
@H5E_OHDR_g = external global i64, align 8
@H5E_BADVALUE_g = external global i64, align 8
@H5E_CANTUNPIN_g = external global i64, align 8
@.str.38 = private unnamed_addr constant [30 x i8] c"unable to unpin object header\00", align 1
@H5E_ARGS_g = external global i64, align 8
@__func__.H5O_unpin = private unnamed_addr constant [10 x i8] c"H5O_unpin\00", align 1
@H5E_CANTDEC_g = external global i64, align 8
@.str.50 = private unnamed_addr constant [53 x i8] c"unable to decrement reference count on object header\00", align 1
@__func__.H5O__dec_rc = private unnamed_addr constant [12 x i8] c"H5O__dec_rc\00", align 1
@.str.89 = private unnamed_addr constant [22 x i8] c"invalid object header\00", align 1

; Function Attrs: nounwind uwtable
define i32 @H5O__dec_rc(ptr noundef %0) #0 {
  %2 = alloca ptr, align 8
  %3 = alloca i32, align 4
  %4 = alloca i8, align 1
  store ptr %0, ptr %2, align 8
  store i32 0, ptr %3, align 4
  store i8 0, ptr %4, align 1
  %5 = load ptr, ptr %2, align 8
  %6 = icmp ne ptr %5, null
  br i1 %6, label %22, label %7

7:                                                ; preds = %1
  br label %8

8:                                                ; preds = %7
  br label %9

9:                                                ; preds = %8
  br label %10

10:                                               ; preds = %9
  %11 = load i64, ptr @H5E_ARGS_g, align 8
  %12 = load i64, ptr @H5E_BADVALUE_g, align 8
  %13 = call i32 (ptr, ptr, i32, i64, i64, ptr, ...) @H5E_printf_stack(ptr noundef @.str.4, ptr noundef @__func__.H5O__dec_rc, i32 noundef 2778, i64 noundef %11, i64 noundef %12, ptr noundef @.str.89)
  br label %14

14:                                               ; preds = %10
  store i8 1, ptr %4, align 1
  %15 = load i8, ptr %4, align 1
  %16 = trunc i8 %15 to i1
  %17 = zext i1 %16 to i8
  store i8 %17, ptr %4, align 1
  br label %18

18:                                               ; preds = %14
  br label %19

19:                                               ; preds = %18
  store i32 -1, ptr %3, align 4
  br label %52

20:                                               ; No predecessors!
  br label %21

21:                                               ; preds = %20
  br label %22

22:                                               ; preds = %21, %1
  %23 = load ptr, ptr %2, align 8
  %24 = getelementptr inbounds %struct.H5O_t, ptr %23, i32 0, i32 4
  %25 = load i64, ptr %24, align 8
  %26 = add i64 %25, -1
  store i64 %26, ptr %24, align 8
  %27 = load ptr, ptr %2, align 8
  %28 = getelementptr inbounds %struct.H5O_t, ptr %27, i32 0, i32 4
  %29 = load i64, ptr %28, align 8
  %30 = icmp eq i64 %29, 0
  br i1 %30, label %31, label %51

31:                                               ; preds = %22
  %32 = load ptr, ptr %2, align 8
  %33 = call i32 @H5AC_unpin_entry(ptr noundef %32)
  %34 = icmp slt i32 %33, 0
  br i1 %34, label %35, label %50

35:                                               ; preds = %31
  br label %36

36:                                               ; preds = %35
  br label %37

37:                                               ; preds = %36
  br label %38

38:                                               ; preds = %37
  %39 = load i64, ptr @H5E_OHDR_g, align 8
  %40 = load i64, ptr @H5E_CANTUNPIN_g, align 8
  %41 = call i32 (ptr, ptr, i32, i64, i64, ptr, ...) @H5E_printf_stack(ptr noundef @.str.4, ptr noundef @__func__.H5O__dec_rc, i32 noundef 2786, i64 noundef %39, i64 noundef %40, ptr noundef @.str.38)
  br label %42

42:                                               ; preds = %38
  store i8 1, ptr %4, align 1
  %43 = load i8, ptr %4, align 1
  %44 = trunc i8 %43 to i1
  %45 = zext i1 %44 to i8
  store i8 %45, ptr %4, align 1
  br label %46

46:                                               ; preds = %42
  br label %47

47:                                               ; preds = %46
  store i32 -1, ptr %3, align 4
  br label %52

48:                                               ; No predecessors!
  br label %49

49:                                               ; preds = %48
  br label %50

50:                                               ; preds = %49, %31
  br label %51

51:                                               ; preds = %50, %22
  br label %52

52:                                               ; preds = %51, %47, %19
  %53 = load i32, ptr %3, align 4
  ret i32 %53
}

; Function Attrs: nounwind uwtable
define i32 @H5O_unpin(ptr noundef %0) #0 {
  %2 = alloca ptr, align 8
  %3 = alloca i32, align 4
  %4 = alloca i8, align 1
  store ptr %0, ptr %2, align 8
  store i32 0, ptr %3, align 4
  store i8 0, ptr %4, align 1
  %5 = load ptr, ptr %2, align 8
  %6 = call i32 @H5O__dec_rc(ptr noundef %5)
  %7 = icmp slt i32 %6, 0
  br i1 %7, label %8, label %23

8:                                                ; preds = %1
  br label %9

9:                                                ; preds = %8
  br label %10

10:                                               ; preds = %9
  br label %11

11:                                               ; preds = %10
  %12 = load i64, ptr @H5E_OHDR_g, align 8
  %13 = load i64, ptr @H5E_CANTDEC_g, align 8
  %14 = call i32 (ptr, ptr, i32, i64, i64, ptr, ...) @H5E_printf_stack(ptr noundef @.str.4, ptr noundef @__func__.H5O_unpin, i32 noundef 1193, i64 noundef %12, i64 noundef %13, ptr noundef @.str.50)
  br label %15

15:                                               ; preds = %11
  store i8 1, ptr %4, align 1
  %16 = load i8, ptr %4, align 1
  %17 = trunc i8 %16 to i1
  %18 = zext i1 %17 to i8
  store i8 %18, ptr %4, align 1
  br label %19

19:                                               ; preds = %15
  br label %20

20:                                               ; preds = %19
  store i32 -1, ptr %3, align 4
  br label %24

21:                                               ; No predecessors!
  br label %22

22:                                               ; preds = %21
  br label %23

23:                                               ; preds = %22, %1
  br label %24

24:                                               ; preds = %23, %20
  %25 = load i32, ptr %3, align 4
  ret i32 %25
}